target datalayout = "e-m:e-p270:32:32-p271:32:32-p272:64:64-i64:64-i128:128-f80:128-n8:16:32:64-S128"
target triple = "x86_64-pc-linux-gnu"

%struct.Rectangle2 = type { i32, i32, i32, i32 }

; Function Attrs: nounwind uwtable
define internal void @calc_draw_region(ptr noundef %0, ptr noundef %1) #1 {
  %3 = alloca ptr, align 8
  %4 = alloca ptr, align 8
  store ptr %0, ptr %3, align 8, !tbaa !181
  store ptr %1, ptr %4, align 8, !tbaa !181
  %5 = load ptr, ptr %4, align 8, !tbaa !181
  %6 = getelementptr inbounds nuw %struct.Rectangle2, ptr %5, i32 0, i32 2
  %7 = load i32, ptr %6, align 4, !tbaa !113
  %8 = load ptr, ptr %3, align 8, !tbaa !181
  %9 = getelementptr inbounds nuw %struct.Rectangle2, ptr %8, i32 0, i32 2
  %10 = load i32, ptr %9, align 4, !tbaa !113
  %11 = icmp sle i32 %7, %10
  br i1 %11, label %12, label %95

12:                                               ; preds = %2
  %13 = load ptr, ptr %4, align 8, !tbaa !181
  %14 = getelementptr inbounds nuw %struct.Rectangle2, ptr %13, i32 0, i32 3
  %15 = load i32, ptr %14, align 4, !tbaa !115
  %16 = load ptr, ptr %3, align 8, !tbaa !181
  %17 = getelementptr inbounds nuw %struct.Rectangle2, ptr %16, i32 0, i32 3
  %18 = load i32, ptr %17, align 4, !tbaa !115
  %19 = icmp sge i32 %15, %18
  br i1 %19, label %20, label %95

20:                                               ; preds = %12
  %21 = load ptr, ptr %4, align 8, !tbaa !181
  %22 = getelementptr inbounds nuw %struct.Rectangle2, ptr %21, i32 0, i32 0
  %23 = load i32, ptr %22, align 4, !tbaa !111
  %24 = load ptr, ptr %3, align 8, !tbaa !181
  %25 = getelementptr inbounds nuw %struct.Rectangle2, ptr %24, i32 0, i32 0
  %26 = load i32, ptr %25, align 4, !tbaa !111
  %27 = icmp sle i32 %23, %26
  br i1 %27, label %28, label %56

28:                                               ; preds = %20
  %29 = load ptr, ptr %4, align 8, !tbaa !181
  %30 = getelementptr inbounds nuw %struct.Rectangle2, ptr %29, i32 0, i32 1
  %31 = load i32, ptr %30, align 4, !tbaa !114
  %32 = load ptr, ptr %3, align 8, !tbaa !181
  %33 = getelementptr inbounds nuw %struct.Rectangle2, ptr %32, i32 0, i32 0
  %34 = load i32, ptr %33, align 4, !tbaa !111
  %35 = icmp sge i32 %31, %34
  br i1 %35, label %36, label %56

36:                                               ; preds = %28
  %37 = load ptr, ptr %4, align 8, !tbaa !181
  %38 = getelementptr inbounds nuw %struct.Rectangle2, ptr %37, i32 0, i32 1
  %39 = load i32, ptr %38, align 4, !tbaa !114
  %40 = load ptr, ptr %3, align 8, !tbaa !181
  %41 = getelementptr inbounds nuw %struct.Rectangle2, ptr %40, i32 0, i32 1
  %42 = load i32, ptr %41, align 4, !tbaa !114
  %43 = icmp sgt i32 %39, %42
  br i1 %43, label %44, label %48

44:                                               ; preds = %36
  %45 = load ptr, ptr %3, align 8, !tbaa !181
  %46 = getelementptr inbounds nuw %struct.Rectangle2, ptr %45, i32 0, i32 1
  %47 = load i32, ptr %46, align 4, !tbaa !114
  br label %52

48:                                               ; preds = %36
  %49 = load ptr, ptr %4, align 8, !tbaa !181
  %50 = getelementptr inbounds nuw %struct.Rectangle2, ptr %49, i32 0, i32 1
  %51 = load i32, ptr %50, align 4, !tbaa !114
  br label %52

52:                                               ; preds = %48, %44
  %53 = phi i32 [ %47, %44 ], [ %51, %48 ]
  %54 = load ptr, ptr %3, align 8, !tbaa !181
  %55 = getelementptr inbounds nuw %struct.Rectangle2, ptr %54, i32 0, i32 0
  store i32 %53, ptr %55, align 4, !tbaa !111
  br label %56

56:                                               ; preds = %52, %28, %20
  %57 = load ptr, ptr %4, align 8, !tbaa !181
  %58 = getelementptr inbounds nuw %struct.Rectangle2, ptr %57, i32 0, i32 1
  %59 = load i32, ptr %58, align 4, !tbaa !114
  %60 = load ptr, ptr %3, align 8, !tbaa !181
  %61 = getelementptr inbounds nuw %struct.Rectangle2, ptr %60, i32 0, i32 1
  %62 = load i32, ptr %61, align 4, !tbaa !114
  %63 = icmp sge i32 %59, %62
  br i1 %63, label %64, label %94

64:                                               ; preds = %56
  %65 = load ptr, ptr %4, align 8, !tbaa !181
  %66 = getelementptr inbounds nuw %struct.Rectangle2, ptr %65, i32 0, i32 0
  %67 = load i32, ptr %66, align 4, !tbaa !111
  %68 = load ptr, ptr %3, align 8, !tbaa !181
  %69 = getelementptr inbounds nuw %struct.Rectangle2, ptr %68, i32 0, i32 0
  %70 = load i32, ptr %69, align 4, !tbaa !111
  %71 = icmp sge i32 %67, %70
  br i1 %71, label %72, label %87

72:                                               ; preds = %64
  %73 = load ptr, ptr %4, align 8, !tbaa !181
  %74 = getelementptr inbounds nuw %struct.Rectangle2, ptr %73, i32 0, i32 0
  %75 = load i32, ptr %74, align 4, !tbaa !111
  %76 = load ptr, ptr %3, align 8, !tbaa !181
  %77 = getelementptr inbounds nuw %struct.Rectangle2, ptr %76, i32 0, i32 1
  %78 = load i32, ptr %77, align 4, !tbaa !114
  %79 = icmp slt i32 %75, %78
  br i1 %79, label %80, label %86

80:                                               ; preds = %72
  %81 = load ptr, ptr %4, align 8, !tbaa !181
  %82 = getelementptr inbounds nuw %struct.Rectangle2, ptr %81, i32 0, i32 0
  %83 = load i32, ptr %82, align 4, !tbaa !111
  %84 = load ptr, ptr %3, align 8, !tbaa !181
  %85 = getelementptr inbounds nuw %struct.Rectangle2, ptr %84, i32 0, i32 1
  store i32 %83, ptr %85, align 4, !tbaa !114
  br label %86

86:                                               ; preds = %80, %72
  br label %93

87:                                               ; preds = %64
  %88 = load ptr, ptr %3, align 8, !tbaa !181
  %89 = getelementptr inbounds nuw %struct.Rectangle2, ptr %88, i32 0, i32 0
  %90 = load i32, ptr %89, align 4, !tbaa !111
  %91 = load ptr, ptr %3, align 8, !tbaa !181
  %92 = getelementptr inbounds nuw %struct.Rectangle2, ptr %91, i32 0, i32 1
  store i32 %90, ptr %92, align 4, !tbaa !114
  br label %93

93:                                               ; preds = %87, %86
  br label %94

94:                                               ; preds = %93, %56
  br label %95

95:                                               ; preds = %94, %12, %2
  %96 = load ptr, ptr %4, align 8, !tbaa !181
  %97 = getelementptr inbounds nuw %struct.Rectangle2, ptr %96, i32 0, i32 0
  %98 = load i32, ptr %97, align 4, !tbaa !111
  %99 = load ptr, ptr %3, align 8, !tbaa !181
  %100 = getelementptr inbounds nuw %struct.Rectangle2, ptr %99, i32 0, i32 0
  %101 = load i32, ptr %100, align 4, !tbaa !111
  %102 = icmp sle i32 %98, %101
  br i1 %102, label %103, label %186

103:                                              ; preds = %95
  %104 = load ptr, ptr %4, align 8, !tbaa !181
  %105 = getelementptr inbounds nuw %struct.Rectangle2, ptr %104, i32 0, i32 1
  %106 = load i32, ptr %105, align 4, !tbaa !114
  %107 = load ptr, ptr %3, align 8, !tbaa !181
  %108 = getelementptr inbounds nuw %struct.Rectangle2, ptr %107, i32 0, i32 1
  %109 = load i32, ptr %108, align 4, !tbaa !114
  %110 = icmp sge i32 %106, %109
  br i1 %110, label %111, label %186

111:                                              ; preds = %103
  %112 = load ptr, ptr %4, align 8, !tbaa !181
  %113 = getelementptr inbounds nuw %struct.Rectangle2, ptr %112, i32 0, i32 2
  %114 = load i32, ptr %113, align 4, !tbaa !113
  %115 = load ptr, ptr %3, align 8, !tbaa !181
  %116 = getelementptr inbounds nuw %struct.Rectangle2, ptr %115, i32 0, i32 2
  %117 = load i32, ptr %116, align 4, !tbaa !113
  %118 = icmp sle i32 %114, %117
  br i1 %118, label %119, label %147

119:                                              ; preds = %111
  %120 = load ptr, ptr %4, align 8, !tbaa !181
  %121 = getelementptr inbounds nuw %struct.Rectangle2, ptr %120, i32 0, i32 3
  %122 = load i32, ptr %121, align 4, !tbaa !115
  %123 = load ptr, ptr %3, align 8, !tbaa !181
  %124 = getelementptr inbounds nuw %struct.Rectangle2, ptr %123, i32 0, i32 2
  %125 = load i32, ptr %124, align 4, !tbaa !113
  %126 = icmp sge i32 %122, %125
  br i1 %126, label %127, label %147

127:                                              ; preds = %119
  %128 = load ptr, ptr %4, align 8, !tbaa !181
  %129 = getelementptr inbounds nuw %struct.Rectangle2, ptr %128, i32 0, i32 3
  %130 = load i32, ptr %129, align 4, !tbaa !115
  %131 = load ptr, ptr %3, align 8, !tbaa !181
  %132 = getelementptr inbounds nuw %struct.Rectangle2, ptr %131, i32 0, i32 3
  %133 = load i32, ptr %132, align 4, !tbaa !115
  %134 = icmp sgt i32 %130, %133
  br i1 %134, label %135, label %139

135:                                              ; preds = %127
  %136 = load ptr, ptr %3, align 8, !tbaa !181
  %137 = getelementptr inbounds nuw %struct.Rectangle2, ptr %136, i32 0, i32 3
  %138 = load i32, ptr %137, align 4, !tbaa !115
  br label %143

139:                                              ; preds = %127
  %140 = load ptr, ptr %4, align 8, !tbaa !181
  %141 = getelementptr inbounds nuw %struct.Rectangle2, ptr %140, i32 0, i32 3
  %142 = load i32, ptr %141, align 4, !tbaa !115
  br label %143

143:                                              ; preds = %139, %135
  %144 = phi i32 [ %138, %135 ], [ %142, %139 ]
  %145 = load ptr, ptr %3, align 8, !tbaa !181
  %146 = getelementptr inbounds nuw %struct.Rectangle2, ptr %145, i32 0, i32 2
  store i32 %144, ptr %146, align 4, !tbaa !113
  br label %147

147:                                              ; preds = %143, %119, %111
  %148 = load ptr, ptr %4, align 8, !tbaa !181
  %149 = getelementptr inbounds nuw %struct.Rectangle2, ptr %148, i32 0, i32 3
  %150 = load i32, ptr %149, align 4, !tbaa !115
  %151 = load ptr, ptr %3, align 8, !tbaa !181
  %152 = getelementptr inbounds nuw %struct.Rectangle2, ptr %151, i32 0, i32 3
  %153 = load i32, ptr %152, align 4, !tbaa !115
  %154 = icmp sge i32 %150, %153
  br i1 %154, label %155, label %185

155:                                              ; preds = %147
  %156 = load ptr, ptr %4, align 8, !tbaa !181
  %157 = getelementptr inbounds nuw %struct.Rectangle2, ptr %156, i32 0, i32 2
  %158 = load i32, ptr %157, align 4, !tbaa !113
  %159 = load ptr, ptr %3, align 8, !tbaa !181
  %160 = getelementptr inbounds nuw %struct.Rectangle2, ptr %159, i32 0, i32 2
  %161 = load i32, ptr %160, align 4, !tbaa !113
  %162 = icmp sge i32 %158, %161
  br i1 %162, label %163, label %178

163:                                              ; preds = %155
  %164 = load ptr, ptr %4, align 8, !tbaa !181
  %165 = getelementptr inbounds nuw %struct.Rectangle2, ptr %164, i32 0, i32 2
  %166 = load i32, ptr %165, align 4, !tbaa !113
  %167 = load ptr, ptr %3, align 8, !tbaa !181
  %168 = getelementptr inbounds nuw %struct.Rectangle2, ptr %167, i32 0, i32 3
  %169 = load i32, ptr %168, align 4, !tbaa !115
  %170 = icmp slt i32 %166, %169
  br i1 %170, label %171, label %177

171:                                              ; preds = %163
  %172 = load ptr, ptr %4, align 8, !tbaa !181
  %173 = getelementptr inbounds nuw %struct.Rectangle2, ptr %172, i32 0, i32 2
  %174 = load i32, ptr %173, align 4, !tbaa !113
  %175 = load ptr, ptr %3, align 8, !tbaa !181
  %176 = getelementptr inbounds nuw %struct.Rectangle2, ptr %175, i32 0, i32 3
  store i32 %174, ptr %176, align 4, !tbaa !115
  br label %177

177:                                              ; preds = %171, %163
  br label %184

178:                                              ; preds = %155
  %179 = load ptr, ptr %3, align 8, !tbaa !181
  %180 = getelementptr inbounds nuw %struct.Rectangle2, ptr %179, i32 0, i32 2
  %181 = load i32, ptr %180, align 4, !tbaa !113
  %182 = load ptr, ptr %3, align 8, !tbaa !181
  %183 = getelementptr inbounds nuw %struct.Rectangle2, ptr %182, i32 0, i32 3
  store i32 %181, ptr %183, align 4, !tbaa !115
  br label %184

184:                                              ; preds = %178, %177
  br label %185

185:                                              ; preds = %184, %147
  br label %186

186:                                              ; preds = %185, %103, %95
  ret void
}