; Function Attrs: mustprogress nofree norecurse nosync nounwind willreturn memory(argmem: readwrite) uwtable
define internal fastcc void @calc_draw_region(ptr noundef nonnull captures(none) %0, ptr noundef nonnull readonly captures(none) %1) unnamed_addr #7 {
  %3 = getelementptr inbounds nuw i8, ptr %1, i64 8
  %4 = load i32, ptr %3, align 4, !tbaa !120
  %5 = getelementptr inbounds nuw i8, ptr %0, i64 8
  %6 = load i32, ptr %5, align 4, !tbaa !120
  %.not = icmp sgt i32 %4, %6
  br i1 %.not, label %._crit_edge69, label %7

._crit_edge69:                                    ; preds = %2
  %.pre70 = load i32, ptr %1, align 4, !tbaa !118
  %.pre73 = load i32, ptr %0, align 4, !tbaa !118
  br label %24

7:                                                ; preds = %2
  %8 = getelementptr inbounds nuw i8, ptr %1, i64 12
  %9 = load i32, ptr %8, align 4, !tbaa !122
  %10 = getelementptr inbounds nuw i8, ptr %0, i64 12
  %11 = load i32, ptr %10, align 4, !tbaa !122
  %.not57 = icmp slt i32 %9, %11
  %.pre72 = load i32, ptr %1, align 4, !tbaa !118
  %.pre74 = load i32, ptr %0, align 4, !tbaa !118
  br i1 %.not57, label %24, label %12

12:                                               ; preds = %7
  %.not58 = icmp sgt i32 %.pre72, %.pre74
  %.phi.trans.insert = getelementptr inbounds nuw i8, ptr %1, i64 4
  %.pre = load i32, ptr %.phi.trans.insert, align 4, !tbaa !121
  %.not59 = icmp slt i32 %.pre, %.pre74
  %or.cond = select i1 %.not58, i1 true, i1 %.not59
  br i1 %or.cond, label %._crit_edge, label %13

13:                                               ; preds = %12
  %14 = getelementptr inbounds nuw i8, ptr %0, i64 4
  %15 = load i32, ptr %14, align 4, !tbaa !121
  %. = tail call i32 @llvm.smin.i32(i32 %.pre, i32 %15)
  store i32 %., ptr %0, align 4, !tbaa !118
  %.pre71.pre = load i32, ptr %1, align 4, !tbaa !118
  br label %._crit_edge

._crit_edge:                                      ; preds = %12, %13
  %.pre71 = phi i32 [ %.pre71.pre, %13 ], [ %.pre72, %12 ]
  %16 = phi i32 [ %., %13 ], [ %.pre74, %12 ]
  %17 = getelementptr inbounds nuw i8, ptr %0, i64 4
  %18 = load i32, ptr %17, align 4, !tbaa !121
  %.not60 = icmp slt i32 %.pre, %18
  br i1 %.not60, label %24, label %19

19:                                               ; preds = %._crit_edge
  %.not61 = icmp slt i32 %.pre71, %16
  br i1 %.not61, label %23, label %20

20:                                               ; preds = %19
  %21 = icmp slt i32 %.pre71, %18
  br i1 %21, label %22, label %24

22:                                               ; preds = %20
  store i32 %.pre71, ptr %17, align 4, !tbaa !121
  br label %24

23:                                               ; preds = %19
  store i32 %16, ptr %17, align 4, !tbaa !121
  br label %24

24:                                               ; preds = %._crit_edge69, %._crit_edge, %20, %22, %23, %7
  %25 = phi i32 [ %.pre73, %._crit_edge69 ], [ %16, %._crit_edge ], [ %16, %20 ], [ %16, %22 ], [ %16, %23 ], [ %.pre74, %7 ]
  %26 = phi i32 [ %.pre70, %._crit_edge69 ], [ %.pre71, %._crit_edge ], [ %.pre71, %20 ], [ %.pre71, %22 ], [ %.pre71, %23 ], [ %.pre72, %7 ]
  %.not62 = icmp sgt i32 %26, %25
  br i1 %.not62, label %43, label %27

27:                                               ; preds = %24
  %28 = getelementptr inbounds nuw i8, ptr %1, i64 4
  %29 = load i32, ptr %28, align 4, !tbaa !121
  %30 = getelementptr inbounds nuw i8, ptr %0, i64 4
  %31 = load i32, ptr %30, align 4, !tbaa !121
  %.not63 = icmp slt i32 %29, %31
  br i1 %.not63, label %43, label %32

32:                                               ; preds = %27
  %.phi.trans.insert76 = getelementptr inbounds nuw i8, ptr %1, i64 12
  %.pre77 = load i32, ptr %.phi.trans.insert76, align 4, !tbaa !122
  %.not65 = icmp slt i32 %.pre77, %6
  %or.cond79 = select i1 %.not, i1 true, i1 %.not65
  br i1 %or.cond79, label %._crit_edge75, label %33

33:                                               ; preds = %32
  %34 = getelementptr inbounds nuw i8, ptr %0, i64 12
  %35 = load i32, ptr %34, align 4, !tbaa !122
  %.68 = tail call i32 @llvm.smin.i32(i32 %.pre77, i32 %35)
  store i32 %.68, ptr %5, align 4, !tbaa !120
  br label %._crit_edge75

._crit_edge75:                                    ; preds = %32, %33
  %36 = phi i32 [ %.68, %33 ], [ %6, %32 ]
  %37 = getelementptr inbounds nuw i8, ptr %0, i64 12
  %38 = load i32, ptr %37, align 4, !tbaa !122
  %.not66 = icmp slt i32 %.pre77, %38
  br i1 %.not66, label %43, label %39

39:                                               ; preds = %._crit_edge75
  %40 = load i32, ptr %3, align 4, !tbaa !120
  %.not67 = icmp slt i32 %40, %36
  br i1 %.not67, label %.sink.split, label %41

41:                                               ; preds = %39
  %42 = icmp slt i32 %40, %38
  br i1 %42, label %.sink.split, label %43

.sink.split:                                      ; preds = %39, %41
  %.sink = phi i32 [ %40, %41 ], [ %36, %39 ]
  store i32 %.sink, ptr %37, align 4, !tbaa !122
  br label %43

43:                                               ; preds = %.sink.split, %._crit_edge75, %41, %27, %24
  ret void
}